target datalayout = "e-m:e-p270:32:32-p271:32:32-p272:64:64-i64:64-i128:128-f80:128-n8:16:32:64-S128"
target triple = "x86_64-pc-linux-gnu"

%struct.SN_env = type { ptr, i32, i32, i32, i32, i32, ptr, ptr }

@g_vowel = internal constant [27 x i8] c"\11A\10\00\00\00\00\00\00\00\00\00\00\00\00\00\00\00 \08\00\00\00\00\00\00\01", align 16
@g_vowel1 = internal constant [27 x i8] c"\01@\10\00\00\00\00\00\00\00\00\00\00\00\00\00\00\00\00\00\00\00\00\00\00\00\01", align 16
@g_vowel2 = internal constant [19 x i8] c"\11\00\00\00\00\00\00\00\00\00\00\00\00\00\00\00\00\00\82", align 16
@s_0 = internal constant [2 x i8] c"\C4\B1", align 1
@g_vowel3 = internal constant [27 x i8] c"\01\00\00\00\00\00\00\00\00\00\00\00\00\00\00\00\00\00\00\00\00\00\00\00\00\00\01", align 16
@g_vowel4 = internal constant [1 x i8] c"\11", align 1
@g_vowel5 = internal constant [1 x i8] c"A", align 1
@s_1 = internal constant [2 x i8] c"\C3\B6", align 1
@g_vowel6 = internal constant [1 x i8] c"A", align 1
@s_2 = internal constant [2 x i8] c"\C3\BC", align 1

; Function Attrs: nounwind uwtable
define internal i32 @r_check_vowel_harmony(ptr noundef %0) #0 {
  %2 = alloca i32, align 4
  %3 = alloca ptr, align 8
  %4 = alloca i32, align 4
  %5 = alloca i32, align 4
  %6 = alloca i32, align 4
  store ptr %0, ptr %3, align 8
  call void @llvm.lifetime.start.p0(i64 4, ptr %4) #3
  %7 = load ptr, ptr %3, align 8
  %8 = getelementptr inbounds nuw %struct.SN_env, ptr %7, i32 0, i32 2
  %9 = load i32, ptr %8, align 4
  %10 = load ptr, ptr %3, align 8
  %11 = getelementptr inbounds nuw %struct.SN_env, ptr %10, i32 0, i32 1
  %12 = load i32, ptr %11, align 8
  %13 = sub i32 %9, %12
  store i32 %13, ptr %4, align 4
  %14 = load ptr, ptr %3, align 8
  %15 = call i32 @out_grouping_b_U(ptr noundef %14, ptr noundef @g_vowel, i32 noundef 97, i32 noundef 305, i32 noundef 1)
  %16 = icmp slt i32 %15, 0
  br i1 %16, label %17, label %18

17:                                               ; preds = %1
  store i32 0, ptr %2, align 4
  store i32 1, ptr %5, align 4
  br label %278

18:                                               ; preds = %1
  call void @llvm.lifetime.start.p0(i64 4, ptr %6) #3
  %19 = load ptr, ptr %3, align 8
  %20 = getelementptr inbounds nuw %struct.SN_env, ptr %19, i32 0, i32 2
  %21 = load i32, ptr %20, align 4
  %22 = load ptr, ptr %3, align 8
  %23 = getelementptr inbounds nuw %struct.SN_env, ptr %22, i32 0, i32 1
  %24 = load i32, ptr %23, align 8
  %25 = sub i32 %21, %24
  store i32 %25, ptr %6, align 4
  %26 = load ptr, ptr %3, align 8
  %27 = getelementptr inbounds nuw %struct.SN_env, ptr %26, i32 0, i32 1
  %28 = load i32, ptr %27, align 8
  %29 = load ptr, ptr %3, align 8
  %30 = getelementptr inbounds nuw %struct.SN_env, ptr %29, i32 0, i32 3
  %31 = load i32, ptr %30, align 8
  %32 = icmp sle i32 %28, %31
  br i1 %32, label %46, label %33

33:                                               ; preds = %18
  %34 = load ptr, ptr %3, align 8
  %35 = getelementptr inbounds nuw %struct.SN_env, ptr %34, i32 0, i32 0
  %36 = load ptr, ptr %35, align 8
  %37 = load ptr, ptr %3, align 8
  %38 = getelementptr inbounds nuw %struct.SN_env, ptr %37, i32 0, i32 1
  %39 = load i32, ptr %38, align 8
  %40 = sub i32 %39, 1
  %41 = sext i32 %40 to i64
  %42 = getelementptr inbounds i8, ptr %36, i64 %41
  %43 = load i8, ptr %42, align 1
  %44 = zext i8 %43 to i32
  %45 = icmp ne i32 %44, 97
  br i1 %45, label %46, label %47

46:                                               ; preds = %33, %18
  br label %57

47:                                               ; preds = %33
  %48 = load ptr, ptr %3, align 8
  %49 = getelementptr inbounds nuw %struct.SN_env, ptr %48, i32 0, i32 1
  %50 = load i32, ptr %49, align 8
  %51 = add i32 %50, -1
  store i32 %51, ptr %49, align 8
  %52 = load ptr, ptr %3, align 8
  %53 = call i32 @out_grouping_b_U(ptr noundef %52, ptr noundef @g_vowel1, i32 noundef 97, i32 noundef 305, i32 noundef 1)
  %54 = icmp slt i32 %53, 0
  br i1 %54, label %55, label %56

55:                                               ; preds = %47
  br label %57

56:                                               ; preds = %47
  store i32 3, ptr %5, align 4
  br label %267

57:                                               ; preds = %55, %46
  %58 = load ptr, ptr %3, align 8
  %59 = getelementptr inbounds nuw %struct.SN_env, ptr %58, i32 0, i32 2
  %60 = load i32, ptr %59, align 4
  %61 = load i32, ptr %6, align 4
  %62 = sub i32 %60, %61
  %63 = load ptr, ptr %3, align 8
  %64 = getelementptr inbounds nuw %struct.SN_env, ptr %63, i32 0, i32 1
  store i32 %62, ptr %64, align 8
  %65 = load ptr, ptr %3, align 8
  %66 = getelementptr inbounds nuw %struct.SN_env, ptr %65, i32 0, i32 1
  %67 = load i32, ptr %66, align 8
  %68 = load ptr, ptr %3, align 8
  %69 = getelementptr inbounds nuw %struct.SN_env, ptr %68, i32 0, i32 3
  %70 = load i32, ptr %69, align 8
  %71 = icmp sle i32 %67, %70
  br i1 %71, label %85, label %72

72:                                               ; preds = %57
  %73 = load ptr, ptr %3, align 8
  %74 = getelementptr inbounds nuw %struct.SN_env, ptr %73, i32 0, i32 0
  %75 = load ptr, ptr %74, align 8
  %76 = load ptr, ptr %3, align 8
  %77 = getelementptr inbounds nuw %struct.SN_env, ptr %76, i32 0, i32 1
  %78 = load i32, ptr %77, align 8
  %79 = sub i32 %78, 1
  %80 = sext i32 %79 to i64
  %81 = getelementptr inbounds i8, ptr %75, i64 %80
  %82 = load i8, ptr %81, align 1
  %83 = zext i8 %82 to i32
  %84 = icmp ne i32 %83, 101
  br i1 %84, label %85, label %86

85:                                               ; preds = %72, %57
  br label %96

86:                                               ; preds = %72
  %87 = load ptr, ptr %3, align 8
  %88 = getelementptr inbounds nuw %struct.SN_env, ptr %87, i32 0, i32 1
  %89 = load i32, ptr %88, align 8
  %90 = add i32 %89, -1
  store i32 %90, ptr %88, align 8
  %91 = load ptr, ptr %3, align 8
  %92 = call i32 @out_grouping_b_U(ptr noundef %91, ptr noundef @g_vowel2, i32 noundef 101, i32 noundef 252, i32 noundef 1)
  %93 = icmp slt i32 %92, 0
  br i1 %93, label %94, label %95

94:                                               ; preds = %86
  br label %96

95:                                               ; preds = %86
  store i32 3, ptr %5, align 4
  br label %267

96:                                               ; preds = %94, %85
  %97 = load ptr, ptr %3, align 8
  %98 = getelementptr inbounds nuw %struct.SN_env, ptr %97, i32 0, i32 2
  %99 = load i32, ptr %98, align 4
  %100 = load i32, ptr %6, align 4
  %101 = sub i32 %99, %100
  %102 = load ptr, ptr %3, align 8
  %103 = getelementptr inbounds nuw %struct.SN_env, ptr %102, i32 0, i32 1
  store i32 %101, ptr %103, align 8
  %104 = load ptr, ptr %3, align 8
  %105 = call i32 @eq_s_b(ptr noundef %104, i32 noundef 2, ptr noundef @s_0)
  %106 = icmp ne i32 %105, 0
  br i1 %106, label %108, label %107

107:                                              ; preds = %96
  br label %114

108:                                              ; preds = %96
  %109 = load ptr, ptr %3, align 8
  %110 = call i32 @out_grouping_b_U(ptr noundef %109, ptr noundef @g_vowel3, i32 noundef 97, i32 noundef 305, i32 noundef 1)
  %111 = icmp slt i32 %110, 0
  br i1 %111, label %112, label %113

112:                                              ; preds = %108
  br label %114

113:                                              ; preds = %108
  store i32 3, ptr %5, align 4
  br label %267

114:                                              ; preds = %112, %107
  %115 = load ptr, ptr %3, align 8
  %116 = getelementptr inbounds nuw %struct.SN_env, ptr %115, i32 0, i32 2
  %117 = load i32, ptr %116, align 4
  %118 = load i32, ptr %6, align 4
  %119 = sub i32 %117, %118
  %120 = load ptr, ptr %3, align 8
  %121 = getelementptr inbounds nuw %struct.SN_env, ptr %120, i32 0, i32 1
  store i32 %119, ptr %121, align 8
  %122 = load ptr, ptr %3, align 8
  %123 = getelementptr inbounds nuw %struct.SN_env, ptr %122, i32 0, i32 1
  %124 = load i32, ptr %123, align 8
  %125 = load ptr, ptr %3, align 8
  %126 = getelementptr inbounds nuw %struct.SN_env, ptr %125, i32 0, i32 3
  %127 = load i32, ptr %126, align 8
  %128 = icmp sle i32 %124, %127
  br i1 %128, label %142, label %129

129:                                              ; preds = %114
  %130 = load ptr, ptr %3, align 8
  %131 = getelementptr inbounds nuw %struct.SN_env, ptr %130, i32 0, i32 0
  %132 = load ptr, ptr %131, align 8
  %133 = load ptr, ptr %3, align 8
  %134 = getelementptr inbounds nuw %struct.SN_env, ptr %133, i32 0, i32 1
  %135 = load i32, ptr %134, align 8
  %136 = sub i32 %135, 1
  %137 = sext i32 %136 to i64
  %138 = getelementptr inbounds i8, ptr %132, i64 %137
  %139 = load i8, ptr %138, align 1
  %140 = zext i8 %139 to i32
  %141 = icmp ne i32 %140, 105
  br i1 %141, label %142, label %143

142:                                              ; preds = %129, %114
  br label %153

143:                                              ; preds = %129
  %144 = load ptr, ptr %3, align 8
  %145 = getelementptr inbounds nuw %struct.SN_env, ptr %144, i32 0, i32 1
  %146 = load i32, ptr %145, align 8
  %147 = add i32 %146, -1
  store i32 %147, ptr %145, align 8
  %148 = load ptr, ptr %3, align 8
  %149 = call i32 @out_grouping_b_U(ptr noundef %148, ptr noundef @g_vowel4, i32 noundef 101, i32 noundef 105, i32 noundef 1)
  %150 = icmp slt i32 %149, 0
  br i1 %150, label %151, label %152

151:                                              ; preds = %143
  br label %153

152:                                              ; preds = %143
  store i32 3, ptr %5, align 4
  br label %267

153:                                              ; preds = %151, %142
  %154 = load ptr, ptr %3, align 8
  %155 = getelementptr inbounds nuw %struct.SN_env, ptr %154, i32 0, i32 2
  %156 = load i32, ptr %155, align 4
  %157 = load i32, ptr %6, align 4
  %158 = sub i32 %156, %157
  %159 = load ptr, ptr %3, align 8
  %160 = getelementptr inbounds nuw %struct.SN_env, ptr %159, i32 0, i32 1
  store i32 %158, ptr %160, align 8
  %161 = load ptr, ptr %3, align 8
  %162 = getelementptr inbounds nuw %struct.SN_env, ptr %161, i32 0, i32 1
  %163 = load i32, ptr %162, align 8
  %164 = load ptr, ptr %3, align 8
  %165 = getelementptr inbounds nuw %struct.SN_env, ptr %164, i32 0, i32 3
  %166 = load i32, ptr %165, align 8
  %167 = icmp sle i32 %163, %166
  br i1 %167, label %181, label %168

168:                                              ; preds = %153
  %169 = load ptr, ptr %3, align 8
  %170 = getelementptr inbounds nuw %struct.SN_env, ptr %169, i32 0, i32 0
  %171 = load ptr, ptr %170, align 8
  %172 = load ptr, ptr %3, align 8
  %173 = getelementptr inbounds nuw %struct.SN_env, ptr %172, i32 0, i32 1
  %174 = load i32, ptr %173, align 8
  %175 = sub i32 %174, 1
  %176 = sext i32 %175 to i64
  %177 = getelementptr inbounds i8, ptr %171, i64 %176
  %178 = load i8, ptr %177, align 1
  %179 = zext i8 %178 to i32
  %180 = icmp ne i32 %179, 111
  br i1 %180, label %181, label %182

181:                                              ; preds = %168, %153
  br label %192

182:                                              ; preds = %168
  %183 = load ptr, ptr %3, align 8
  %184 = getelementptr inbounds nuw %struct.SN_env, ptr %183, i32 0, i32 1
  %185 = load i32, ptr %184, align 8
  %186 = add i32 %185, -1
  store i32 %186, ptr %184, align 8
  %187 = load ptr, ptr %3, align 8
  %188 = call i32 @out_grouping_b_U(ptr noundef %187, ptr noundef @g_vowel5, i32 noundef 111, i32 noundef 117, i32 noundef 1)
  %189 = icmp slt i32 %188, 0
  br i1 %189, label %190, label %191

190:                                              ; preds = %182
  br label %192

191:                                              ; preds = %182
  store i32 3, ptr %5, align 4
  br label %267

192:                                              ; preds = %190, %181
  %193 = load ptr, ptr %3, align 8
  %194 = getelementptr inbounds nuw %struct.SN_env, ptr %193, i32 0, i32 2
  %195 = load i32, ptr %194, align 4
  %196 = load i32, ptr %6, align 4
  %197 = sub i32 %195, %196
  %198 = load ptr, ptr %3, align 8
  %199 = getelementptr inbounds nuw %struct.SN_env, ptr %198, i32 0, i32 1
  store i32 %197, ptr %199, align 8
  %200 = load ptr, ptr %3, align 8
  %201 = call i32 @eq_s_b(ptr noundef %200, i32 noundef 2, ptr noundef @s_1)
  %202 = icmp ne i32 %201, 0
  br i1 %202, label %204, label %203

203:                                              ; preds = %192
  br label %210

204:                                              ; preds = %192
  %205 = load ptr, ptr %3, align 8
  %206 = call i32 @out_grouping_b_U(ptr noundef %205, ptr noundef @g_vowel6, i32 noundef 246, i32 noundef 252, i32 noundef 1)
  %207 = icmp slt i32 %206, 0
  br i1 %207, label %208, label %209

208:                                              ; preds = %204
  br label %210

209:                                              ; preds = %204
  store i32 3, ptr %5, align 4
  br label %267

210:                                              ; preds = %208, %203
  %211 = load ptr, ptr %3, align 8
  %212 = getelementptr inbounds nuw %struct.SN_env, ptr %211, i32 0, i32 2
  %213 = load i32, ptr %212, align 4
  %214 = load i32, ptr %6, align 4
  %215 = sub i32 %213, %214
  %216 = load ptr, ptr %3, align 8
  %217 = getelementptr inbounds nuw %struct.SN_env, ptr %216, i32 0, i32 1
  store i32 %215, ptr %217, align 8
  %218 = load ptr, ptr %3, align 8
  %219 = getelementptr inbounds nuw %struct.SN_env, ptr %218, i32 0, i32 1
  %220 = load i32, ptr %219, align 8
  %221 = load ptr, ptr %3, align 8
  %222 = getelementptr inbounds nuw %struct.SN_env, ptr %221, i32 0, i32 3
  %223 = load i32, ptr %222, align 8
  %224 = icmp sle i32 %220, %223
  br i1 %224, label %238, label %225

225:                                              ; preds = %210
  %226 = load ptr, ptr %3, align 8
  %227 = getelementptr inbounds nuw %struct.SN_env, ptr %226, i32 0, i32 0
  %228 = load ptr, ptr %227, align 8
  %229 = load ptr, ptr %3, align 8
  %230 = getelementptr inbounds nuw %struct.SN_env, ptr %229, i32 0, i32 1
  %231 = load i32, ptr %230, align 8
  %232 = sub i32 %231, 1
  %233 = sext i32 %232 to i64
  %234 = getelementptr inbounds i8, ptr %228, i64 %233
  %235 = load i8, ptr %234, align 1
  %236 = zext i8 %235 to i32
  %237 = icmp ne i32 %236, 117
  br i1 %237, label %238, label %239

238:                                              ; preds = %225, %210
  br label %249

239:                                              ; preds = %225
  %240 = load ptr, ptr %3, align 8
  %241 = getelementptr inbounds nuw %struct.SN_env, ptr %240, i32 0, i32 1
  %242 = load i32, ptr %241, align 8
  %243 = add i32 %242, -1
  store i32 %243, ptr %241, align 8
  %244 = load ptr, ptr %3, align 8
  %245 = call i32 @out_grouping_b_U(ptr noundef %244, ptr noundef @g_vowel5, i32 noundef 111, i32 noundef 117, i32 noundef 1)
  %246 = icmp slt i32 %245, 0
  br i1 %246, label %247, label %248

247:                                              ; preds = %239
  br label %249

248:                                              ; preds = %239
  store i32 3, ptr %5, align 4
  br label %267

249:                                              ; preds = %247, %238
  %250 = load ptr, ptr %3, align 8
  %251 = getelementptr inbounds nuw %struct.SN_env, ptr %250, i32 0, i32 2
  %252 = load i32, ptr %251, align 4
  %253 = load i32, ptr %6, align 4
  %254 = sub i32 %252, %253
  %255 = load ptr, ptr %3, align 8
  %256 = getelementptr inbounds nuw %struct.SN_env, ptr %255, i32 0, i32 1
  store i32 %254, ptr %256, align 8
  %257 = load ptr, ptr %3, align 8
  %258 = call i32 @eq_s_b(ptr noundef %257, i32 noundef 2, ptr noundef @s_2)
  %259 = icmp ne i32 %258, 0
  br i1 %259, label %261, label %260

260:                                              ; preds = %249
  store i32 0, ptr %2, align 4
  store i32 1, ptr %5, align 4
  br label %267

261:                                              ; preds = %249
  %262 = load ptr, ptr %3, align 8
  %263 = call i32 @out_grouping_b_U(ptr noundef %262, ptr noundef @g_vowel6, i32 noundef 246, i32 noundef 252, i32 noundef 1)
  %264 = icmp slt i32 %263, 0
  br i1 %264, label %265, label %266

265:                                              ; preds = %261
  store i32 0, ptr %2, align 4
  store i32 1, ptr %5, align 4
  br label %267

266:                                              ; preds = %261
  store i32 0, ptr %5, align 4
  br label %267

267:                                              ; preds = %248, %209, %191, %152, %113, %95, %56, %266, %265, %260
  call void @llvm.lifetime.end.p0(i64 4, ptr %6) #3
  %268 = load i32, ptr %5, align 4
  switch i32 %268, label %278 [
    i32 0, label %269
    i32 3, label %270
  ]

269:                                              ; preds = %267
  br label %270

270:                                              ; preds = %269, %267
  %271 = load ptr, ptr %3, align 8
  %272 = getelementptr inbounds nuw %struct.SN_env, ptr %271, i32 0, i32 2
  %273 = load i32, ptr %272, align 4
  %274 = load i32, ptr %4, align 4
  %275 = sub i32 %273, %274
  %276 = load ptr, ptr %3, align 8
  %277 = getelementptr inbounds nuw %struct.SN_env, ptr %276, i32 0, i32 1
  store i32 %275, ptr %277, align 8
  store i32 0, ptr %5, align 4
  br label %278

278:                                              ; preds = %270, %267, %17
  call void @llvm.lifetime.end.p0(i64 4, ptr %4) #3
  %279 = load i32, ptr %5, align 4
  switch i32 %279, label %283 [
    i32 0, label %280
    i32 1, label %281
  ]

280:                                              ; preds = %278
  store i32 1, ptr %2, align 4
  br label %281

281:                                              ; preds = %280, %278
  %282 = load i32, ptr %2, align 4
  ret i32 %282

283:                                              ; preds = %278
  unreachable
}