; Function Attrs: nounwind uwtable
define internal fastcc range(i32 0, 2) i32 @r_check_vowel_harmony(ptr noundef %0) unnamed_addr #0 {
  %2 = getelementptr inbounds nuw i8, ptr %0, i64 12
  %3 = load i32, ptr %2, align 4
  %4 = getelementptr inbounds nuw i8, ptr %0, i64 8
  %5 = load i32, ptr %4, align 8
  %.neg = sub i32 %5, %3
  %6 = tail call i32 @out_grouping_b_U(ptr noundef %0, ptr noundef nonnull @g_vowel, i32 noundef 97, i32 noundef 305, i32 noundef 1) #3
  %7 = icmp slt i32 %6, 0
  br i1 %7, label %.thread87, label %8

8:                                                ; preds = %1
  %9 = load i32, ptr %2, align 4
  %10 = load i32, ptr %4, align 8
  %11 = sub i32 %9, %10
  %12 = getelementptr inbounds nuw i8, ptr %0, i64 16
  %13 = load i32, ptr %12, align 8
  %.not = icmp sgt i32 %10, %13
  br i1 %.not, label %14, label %23

14:                                               ; preds = %8
  %15 = load ptr, ptr %0, align 8
  %16 = add nsw i32 %10, -1
  %17 = sext i32 %16 to i64
  %18 = getelementptr inbounds i8, ptr %15, i64 %17
  %19 = load i8, ptr %18, align 1
  %.not73 = icmp eq i8 %19, 97
  br i1 %.not73, label %20, label %23

20:                                               ; preds = %14
  store i32 %16, ptr %4, align 8
  %21 = tail call i32 @out_grouping_b_U(ptr noundef nonnull %0, ptr noundef nonnull @g_vowel1, i32 noundef 97, i32 noundef 305, i32 noundef 1) #3
  %22 = icmp slt i32 %21, 0
  br i1 %22, label %._crit_edge, label %88

._crit_edge:                                      ; preds = %20
  %.pre = load i32, ptr %2, align 4
  %.pre91 = load i32, ptr %12, align 8
  br label %23

23:                                               ; preds = %._crit_edge, %8, %14
  %24 = phi i32 [ %.pre91, %._crit_edge ], [ %13, %8 ], [ %13, %14 ]
  %25 = phi i32 [ %.pre, %._crit_edge ], [ %9, %8 ], [ %9, %14 ]
  %26 = sub i32 %25, %11
  store i32 %26, ptr %4, align 8
  %.not74 = icmp sgt i32 %26, %24
  br i1 %.not74, label %27, label %36

27:                                               ; preds = %23
  %28 = load ptr, ptr %0, align 8
  %29 = add nsw i32 %26, -1
  %30 = sext i32 %29 to i64
  %31 = getelementptr inbounds i8, ptr %28, i64 %30
  %32 = load i8, ptr %31, align 1
  %.not75 = icmp eq i8 %32, 101
  br i1 %.not75, label %33, label %36

33:                                               ; preds = %27
  store i32 %29, ptr %4, align 8
  %34 = tail call i32 @out_grouping_b_U(ptr noundef nonnull %0, ptr noundef nonnull @g_vowel2, i32 noundef 101, i32 noundef 252, i32 noundef 1) #3
  %35 = icmp slt i32 %34, 0
  br i1 %35, label %._crit_edge92, label %88

._crit_edge92:                                    ; preds = %33
  %.pre93 = load i32, ptr %2, align 4
  %.pre101 = sub i32 %.pre93, %11
  br label %36

36:                                               ; preds = %._crit_edge92, %23, %27
  %.pre-phi = phi i32 [ %.pre101, %._crit_edge92 ], [ %26, %23 ], [ %26, %27 ]
  store i32 %.pre-phi, ptr %4, align 8
  %37 = tail call i32 @eq_s_b(ptr noundef nonnull %0, i32 noundef 2, ptr noundef nonnull @s_0) #3
  %.not76 = icmp eq i32 %37, 0
  br i1 %.not76, label %41, label %38

38:                                               ; preds = %36
  %39 = tail call i32 @out_grouping_b_U(ptr noundef nonnull %0, ptr noundef nonnull @g_vowel3, i32 noundef 97, i32 noundef 305, i32 noundef 1) #3
  %40 = icmp slt i32 %39, 0
  br i1 %40, label %41, label %88

41:                                               ; preds = %38, %36
  %42 = load i32, ptr %2, align 4
  %43 = sub i32 %42, %11
  store i32 %43, ptr %4, align 8
  %44 = load i32, ptr %12, align 8
  %.not77 = icmp sgt i32 %43, %44
  br i1 %.not77, label %45, label %54

45:                                               ; preds = %41
  %46 = load ptr, ptr %0, align 8
  %47 = add nsw i32 %43, -1
  %48 = sext i32 %47 to i64
  %49 = getelementptr inbounds i8, ptr %46, i64 %48
  %50 = load i8, ptr %49, align 1
  %.not78 = icmp eq i8 %50, 105
  br i1 %.not78, label %51, label %54

51:                                               ; preds = %45
  store i32 %47, ptr %4, align 8
  %52 = tail call i32 @out_grouping_b_U(ptr noundef nonnull %0, ptr noundef nonnull @g_vowel4, i32 noundef 101, i32 noundef 105, i32 noundef 1) #3
  %53 = icmp slt i32 %52, 0
  br i1 %53, label %._crit_edge94, label %88

._crit_edge94:                                    ; preds = %51
  %.pre95 = load i32, ptr %2, align 4
  %.pre96 = load i32, ptr %12, align 8
  %.pre102 = sub i32 %.pre95, %11
  br label %54

54:                                               ; preds = %._crit_edge94, %41, %45
  %.pre-phi103 = phi i32 [ %.pre102, %._crit_edge94 ], [ %43, %41 ], [ %43, %45 ]
  %55 = phi i32 [ %.pre96, %._crit_edge94 ], [ %44, %41 ], [ %44, %45 ]
  store i32 %.pre-phi103, ptr %4, align 8
  %.not79 = icmp sgt i32 %.pre-phi103, %55
  br i1 %.not79, label %56, label %65

56:                                               ; preds = %54
  %57 = load ptr, ptr %0, align 8
  %58 = add nsw i32 %.pre-phi103, -1
  %59 = sext i32 %58 to i64
  %60 = getelementptr inbounds i8, ptr %57, i64 %59
  %61 = load i8, ptr %60, align 1
  %.not80 = icmp eq i8 %61, 111
  br i1 %.not80, label %62, label %65

62:                                               ; preds = %56
  store i32 %58, ptr %4, align 8
  %63 = tail call i32 @out_grouping_b_U(ptr noundef nonnull %0, ptr noundef nonnull @g_vowel5, i32 noundef 111, i32 noundef 117, i32 noundef 1) #3
  %64 = icmp slt i32 %63, 0
  br i1 %64, label %._crit_edge97, label %88

._crit_edge97:                                    ; preds = %62
  %.pre98 = load i32, ptr %2, align 4
  %.pre104 = sub i32 %.pre98, %11
  br label %65

65:                                               ; preds = %._crit_edge97, %54, %56
  %.pre-phi105 = phi i32 [ %.pre104, %._crit_edge97 ], [ %.pre-phi103, %54 ], [ %.pre-phi103, %56 ]
  store i32 %.pre-phi105, ptr %4, align 8
  %66 = tail call i32 @eq_s_b(ptr noundef nonnull %0, i32 noundef 2, ptr noundef nonnull @s_1) #3
  %.not81 = icmp eq i32 %66, 0
  br i1 %.not81, label %70, label %67

67:                                               ; preds = %65
  %68 = tail call i32 @out_grouping_b_U(ptr noundef nonnull %0, ptr noundef nonnull @g_vowel6, i32 noundef 246, i32 noundef 252, i32 noundef 1) #3
  %69 = icmp slt i32 %68, 0
  br i1 %69, label %70, label %88

70:                                               ; preds = %67, %65
  %71 = load i32, ptr %2, align 4
  %72 = sub i32 %71, %11
  store i32 %72, ptr %4, align 8
  %73 = load i32, ptr %12, align 8
  %.not82 = icmp sgt i32 %72, %73
  br i1 %.not82, label %74, label %83

74:                                               ; preds = %70
  %75 = load ptr, ptr %0, align 8
  %76 = add nsw i32 %72, -1
  %77 = sext i32 %76 to i64
  %78 = getelementptr inbounds i8, ptr %75, i64 %77
  %79 = load i8, ptr %78, align 1
  %.not83 = icmp eq i8 %79, 117
  br i1 %.not83, label %80, label %83

80:                                               ; preds = %74
  store i32 %76, ptr %4, align 8
  %81 = tail call i32 @out_grouping_b_U(ptr noundef nonnull %0, ptr noundef nonnull @g_vowel5, i32 noundef 111, i32 noundef 117, i32 noundef 1) #3
  %82 = icmp slt i32 %81, 0
  br i1 %82, label %._crit_edge99, label %88

._crit_edge99:                                    ; preds = %80
  %.pre100 = load i32, ptr %2, align 4
  %.pre106 = sub i32 %.pre100, %11
  br label %83

83:                                               ; preds = %._crit_edge99, %70, %74
  %.pre-phi107 = phi i32 [ %.pre106, %._crit_edge99 ], [ %72, %70 ], [ %72, %74 ]
  store i32 %.pre-phi107, ptr %4, align 8
  %84 = tail call i32 @eq_s_b(ptr noundef nonnull %0, i32 noundef 2, ptr noundef nonnull @s_2) #3
  %.not84 = icmp eq i32 %84, 0
  br i1 %.not84, label %.thread87, label %85

85:                                               ; preds = %83
  %86 = tail call i32 @out_grouping_b_U(ptr noundef nonnull %0, ptr noundef nonnull @g_vowel6, i32 noundef 246, i32 noundef 252, i32 noundef 1) #3
  %87 = icmp slt i32 %86, 0
  br i1 %87, label %.thread87, label %88

88:                                               ; preds = %20, %33, %38, %51, %62, %67, %80, %85
  %89 = load i32, ptr %2, align 4
  %90 = add i32 %.neg, %89
  store i32 %90, ptr %4, align 8
  br label %.thread87

.thread87:                                        ; preds = %85, %83, %1, %88
  %91 = phi i32 [ 1, %88 ], [ 0, %1 ], [ 0, %83 ], [ 0, %85 ]
  ret i32 %91
}